target datalayout = "e-m:e-p270:32:32-p271:32:32-p272:64:64-i64:64-i128:128-f80:128-n8:16:32:64-S128"
target triple = "x86_64-pc-linux-gnu"

%"class.std::basic_string_view" = type { i64, ptr }

; Function Attrs: mustprogress nounwind uwtable
define linkonce_odr dso_local noundef zeroext i1 @_Z6cmIsOnSt17basic_string_viewIcSt11char_traitsIcEE(i64 %0, ptr %1) #6 comdat {
  %3 = alloca %"class.std::basic_string_view", align 8
  %4 = alloca %"class.std::basic_string_view", align 8
  %5 = getelementptr inbounds { i64, ptr }, ptr %3, i32 0, i32 0
  store i64 %0, ptr %5, align 8
  %6 = getelementptr inbounds { i64, ptr }, ptr %3, i32 0, i32 1
  store ptr %1, ptr %6, align 8
  call void @llvm.memcpy.p0.p0.i64(ptr align 8 %4, ptr align 8 %3, i64 16, i1 false)
  %7 = getelementptr inbounds { i64, ptr }, ptr %4, i32 0, i32 0
  %8 = load i64, ptr %7, align 8
  %9 = getelementptr inbounds { i64, ptr }, ptr %4, i32 0, i32 1
  %10 = load ptr, ptr %9, align 8
  %11 = call noundef zeroext i1 @_ZN7cmValue4IsOnESt17basic_string_viewIcSt11char_traitsIcEE(i64 %8, ptr %10) #3
  ret i1 %11
}

; Function Attrs: mustprogress nounwind uwtable
define linkonce_odr dso_local noundef zeroext i1 @_ZNKSt17basic_string_viewIcSt11char_traitsIcEE5emptyEv(ptr noundef nonnull align 8 dereferenceable(16) %0) #6 comdat align 2 {
  %2 = alloca ptr, align 8
  store ptr %0, ptr %2, align 8
  %3 = load ptr, ptr %2, align 8
  %4 = getelementptr inbounds %"class.std::basic_string_view", ptr %3, i32 0, i32 0
  %5 = load i64, ptr %4, align 8
  %6 = icmp eq i64 %5, 0
  ret i1 %6
}

; Function Attrs: mustprogress uwtable
define dso_local noundef i32 @_ZN17cmOutputConverter20GetFortranPreprocessESt17basic_string_viewIcSt11char_traitsIcEE(i64 %0, ptr %1) #4 align 2 {
  %3 = alloca i32, align 4
  %4 = alloca %"class.std::basic_string_view", align 8
  %5 = alloca %"class.std::basic_string_view", align 8
  %6 = getelementptr inbounds { i64, ptr }, ptr %4, i32 0, i32 0
  store i64 %0, ptr %6, align 8
  %7 = getelementptr inbounds { i64, ptr }, ptr %4, i32 0, i32 1
  store ptr %1, ptr %7, align 8
  %8 = call noundef zeroext i1 @_ZNKSt17basic_string_viewIcSt11char_traitsIcEE5emptyEv(ptr noundef nonnull align 8 dereferenceable(16) %4) #3
  br i1 %8, label %9, label %10

9:                                                ; preds = %2
  store i32 0, ptr %3, align 4
  br label %17

10:                                               ; preds = %2
  call void @llvm.memcpy.p0.p0.i64(ptr align 8 %5, ptr align 8 %4, i64 16, i1 false)
  %11 = getelementptr inbounds { i64, ptr }, ptr %5, i32 0, i32 0
  %12 = load i64, ptr %11, align 8
  %13 = getelementptr inbounds { i64, ptr }, ptr %5, i32 0, i32 1
  %14 = load ptr, ptr %13, align 8
  %15 = call noundef zeroext i1 @_Z6cmIsOnSt17basic_string_viewIcSt11char_traitsIcEE(i64 %12, ptr %14)
  %16 = select i1 %15, i32 2, i32 1
  store i32 %16, ptr %3, align 4
  br label %17

17:                                               ; preds = %10, %9
  %18 = load i32, ptr %3, align 4
  ret i32 %18
}