; Function Attrs: mustprogress nounwind uwtable
define dso_local noundef i32 @_ZN17cmOutputConverter20GetFortranPreprocessESt17basic_string_viewIcSt11char_traitsIcEE(i64 %0, ptr %1) local_unnamed_addr #6 align 2 {
  %3 = icmp eq i64 %0, 0
  br i1 %3, label %7, label %4

4:                                                ; preds = %2
  %5 = tail call noundef zeroext i1 @_ZN7cmValue4IsOnESt17basic_string_viewIcSt11char_traitsIcEE(i64 %0, ptr %1) #18
  %6 = select i1 %5, i32 2, i32 1
  br label %7

7:                                                ; preds = %2, %4
  %.0 = phi i32 [ %6, %4 ], [ 0, %2 ]
  ret i32 %.0
}